; ModuleID = '56/1020.c'
source_filename = "56/1020.c"
target datalayout = "e-m:e-p270:32:32-p271:32:32-p272:64:64-i64:64-f80:128-n8:16:32:64-S128"
target triple = "x86_64-pc-linux-gnu"

@.str = private unnamed_addr constant [3 x i8] c"%s\00", align 1
@.str.1 = private unnamed_addr constant [3 x i8] c"%c\00", align 1

; Function Attrs: noinline nounwind uwtable
define dso_local i32 @main() #0 {
  %1 = alloca i32, align 4
  %2 = alloca i32, align 4
  %3 = alloca i32, align 4
  %4 = alloca [6 x i8], align 1
  store i32 0, i32* %1, align 4
  %5 = getelementptr inbounds [6 x i8], [6 x i8]* %4, i64 0, i64 0
  %6 = call i32 (i8*, ...) @__isoc99_scanf(i8* getelementptr inbounds ([3 x i8], [3 x i8]* @.str, i64 0, i64 0), i8* %5)
  %7 = getelementptr inbounds [6 x i8], [6 x i8]* %4, i64 0, i64 0
  %8 = call i64 @strlen(i8* %7) #3
  %9 = trunc i64 %8 to i32
  store i32 %9, i32* %2, align 4
  %10 = load i32, i32* %2, align 4
  store i32 %10, i32* %3, align 4
  br label %11

11:                                               ; preds = %30, %0
  %12 = load i32, i32* %3, align 4
  %13 = icmp sge i32 %12, 0
  br i1 %13, label %14, label %33

14:                                               ; preds = %11
  %15 = load i32, i32* %3, align 4
  %16 = sext i32 %15 to i64
  %17 = getelementptr inbounds [6 x i8], [6 x i8]* %4, i64 0, i64 %16
  %18 = load i8, i8* %17, align 1
  %19 = sext i8 %18 to i32
  %20 = icmp eq i32 %19, 0
  br i1 %20, label %21, label %22

21:                                               ; preds = %14
  br label %30

22:                                               ; preds = %14
  %23 = load i32, i32* %3, align 4
  %24 = sext i32 %23 to i64
  %25 = getelementptr inbounds [6 x i8], [6 x i8]* %4, i64 0, i64 %24
  %26 = load i8, i8* %25, align 1
  %27 = sext i8 %26 to i32
  %28 = call i32 (i8*, ...) @printf(i8* getelementptr inbounds ([3 x i8], [3 x i8]* @.str.1, i64 0, i64 0), i32 %27)
  br label %29

29:                                               ; preds = %22
  br label %30

30:                                               ; preds = %29, %21
  %31 = load i32, i32* %3, align 4
  %32 = add nsw i32 %31, -1
  store i32 %32, i32* %3, align 4
  br label %11

33:                                               ; preds = %11
  ret i32 0
}

declare dso_local i32 @__isoc99_scanf(i8*, ...) #1

; Function Attrs: nounwind readonly
declare dso_local i64 @strlen(i8*) #2

declare dso_local i32 @printf(i8*, ...) #1


!llvm.module.flags = !{!0}
!llvm.ident = !{!1}

!0 = !{i32 1, !"wchar_size", i32 4}
!1 = !{!"clang version 10.0.0-4ubuntu1 "}
